target datalayout = "e-m:e-p270:32:32-p271:32:32-p272:64:64-i64:64-i128:128-f80:128-n8:16:32:64-S128"
target triple = "x86_64-pc-linux-gnu"

%struct._zval_struct = type { %union._zend_value, %union.anon, %union.anon.2 }
%union._zend_value = type { i64 }
%union.anon = type { i32 }
%union.anon.2 = type { i32 }
%struct._zend_refcounted_h = type { i32, %union.anon.3 }
%union.anon.3 = type { i32 }
%struct._zend_object_handlers = type { i32, ptr, ptr, ptr, ptr, ptr, ptr, ptr, ptr, ptr, ptr, ptr, ptr, ptr, ptr, ptr, ptr, ptr, ptr, ptr, ptr, ptr, ptr, ptr, ptr }
%struct._zend_object = type { %struct._zend_refcounted_h, i32, i32, ptr, ptr, ptr, [1 x %struct._zval_struct] }
%struct.anon.0 = type { i8, i8, %union.anon.1 }
%union.anon.1 = type { i16 }
%struct._zend_reference = type { %struct._zend_refcounted_h, %struct._zval_struct, %union.zend_property_info_source_list }
%union.zend_property_info_source_list = type { ptr }

; Function Attrs: alwaysinline nounwind uwtable
define internal zeroext i8 @zval_get_type(ptr noundef %0) #1 {
  %2 = alloca ptr, align 8
  store ptr %0, ptr %2, align 8, !tbaa !12
  %3 = load ptr, ptr %2, align 8, !tbaa !12
  %4 = getelementptr inbounds nuw %struct._zval_struct, ptr %3, i32 0, i32 1
  %5 = getelementptr inbounds nuw %struct.anon.0, ptr %4, i32 0, i32 0
  %6 = load i8, ptr %5, align 8, !tbaa !11
  ret i8 %6
}

; Function Attrs: nounwind uwtable
define dso_local i32 @boolean_not_function(ptr noundef %0, ptr noundef %1) #0 {
  %3 = alloca i32, align 4
  %4 = alloca ptr, align 8
  %5 = alloca ptr, align 8
  store ptr %0, ptr %4, align 8, !tbaa !12
  store ptr %1, ptr %5, align 8, !tbaa !12
  %6 = load ptr, ptr %5, align 8, !tbaa !12
  %7 = call zeroext i8 @zval_get_type(ptr noundef %6)
  %8 = zext i8 %7 to i32
  %9 = icmp slt i32 %8, 3
  br i1 %9, label %10, label %15

10:                                               ; preds = %2
  br label %11

11:                                               ; preds = %10
  %12 = load ptr, ptr %4, align 8, !tbaa !12
  %13 = getelementptr inbounds nuw %struct._zval_struct, ptr %12, i32 0, i32 1
  store i32 3, ptr %13, align 8, !tbaa !11
  br label %14

14:                                               ; preds = %11
  br label %123

15:                                               ; preds = %2
  %16 = load ptr, ptr %5, align 8, !tbaa !12
  %17 = call zeroext i8 @zval_get_type(ptr noundef %16)
  %18 = zext i8 %17 to i32
  %19 = icmp eq i32 %18, 3
  %20 = xor i1 %19, true
  %21 = xor i1 %20, true
  %22 = zext i1 %21 to i32
  %23 = sext i32 %22 to i64
  %24 = call i64 @llvm.expect.i64(i64 %23, i64 1)
  %25 = icmp ne i64 %24, 0
  br i1 %25, label %26, label %31

26:                                               ; preds = %15
  br label %27

27:                                               ; preds = %26
  %28 = load ptr, ptr %4, align 8, !tbaa !12
  %29 = getelementptr inbounds nuw %struct._zval_struct, ptr %28, i32 0, i32 1
  store i32 2, ptr %29, align 8, !tbaa !11
  br label %30

30:                                               ; preds = %27
  br label %122

31:                                               ; preds = %15
  %32 = load ptr, ptr %5, align 8, !tbaa !12
  %33 = call zeroext i8 @zval_get_type(ptr noundef %32)
  %34 = zext i8 %33 to i32
  %35 = icmp eq i32 %34, 10
  br i1 %35, label %36, label %68

36:                                               ; preds = %31
  %37 = load ptr, ptr %5, align 8, !tbaa !12
  %38 = getelementptr inbounds nuw %struct._zval_struct, ptr %37, i32 0, i32 0
  %39 = load ptr, ptr %38, align 8, !tbaa !11
  %40 = getelementptr inbounds nuw %struct._zend_reference, ptr %39, i32 0, i32 1
  store ptr %40, ptr %5, align 8, !tbaa !12
  %41 = load ptr, ptr %5, align 8, !tbaa !12
  %42 = call zeroext i8 @zval_get_type(ptr noundef %41)
  %43 = zext i8 %42 to i32
  %44 = icmp slt i32 %43, 3
  br i1 %44, label %45, label %50

45:                                               ; preds = %36
  br label %46

46:                                               ; preds = %45
  %47 = load ptr, ptr %4, align 8, !tbaa !12
  %48 = getelementptr inbounds nuw %struct._zval_struct, ptr %47, i32 0, i32 1
  store i32 3, ptr %48, align 8, !tbaa !11
  br label %49

49:                                               ; preds = %46
  store i32 0, ptr %3, align 4
  br label %124

50:                                               ; preds = %36
  %51 = load ptr, ptr %5, align 8, !tbaa !12
  %52 = call zeroext i8 @zval_get_type(ptr noundef %51)
  %53 = zext i8 %52 to i32
  %54 = icmp eq i32 %53, 3
  %55 = xor i1 %54, true
  %56 = xor i1 %55, true
  %57 = zext i1 %56 to i32
  %58 = sext i32 %57 to i64
  %59 = call i64 @llvm.expect.i64(i64 %58, i64 1)
  %60 = icmp ne i64 %59, 0
  br i1 %60, label %61, label %66

61:                                               ; preds = %50
  br label %62

62:                                               ; preds = %61
  %63 = load ptr, ptr %4, align 8, !tbaa !12
  %64 = getelementptr inbounds nuw %struct._zval_struct, ptr %63, i32 0, i32 1
  store i32 2, ptr %64, align 8, !tbaa !11
  br label %65

65:                                               ; preds = %62
  store i32 0, ptr %3, align 4
  br label %124

66:                                               ; preds = %50
  br label %67

67:                                               ; preds = %66
  br label %68

68:                                               ; preds = %67, %31
  %69 = load ptr, ptr %5, align 8, !tbaa !12
  %70 = call zeroext i8 @zval_get_type(ptr noundef %69)
  %71 = zext i8 %70 to i32
  %72 = icmp eq i32 %71, 8
  %73 = xor i1 %72, true
  %74 = xor i1 %73, true
  %75 = zext i1 %74 to i32
  %76 = sext i32 %75 to i64
  %77 = call i64 @llvm.expect.i64(i64 %76, i64 0)
  %78 = icmp ne i64 %77, 0
  br i1 %78, label %79, label %113

79:                                               ; preds = %68
  %80 = load ptr, ptr %5, align 8, !tbaa !12
  %81 = getelementptr inbounds nuw %struct._zval_struct, ptr %80, i32 0, i32 0
  %82 = load ptr, ptr %81, align 8, !tbaa !11
  %83 = getelementptr inbounds nuw %struct._zend_object, ptr %82, i32 0, i32 4
  %84 = load ptr, ptr %83, align 8, !tbaa !22
  %85 = getelementptr inbounds nuw %struct._zend_object_handlers, ptr %84, i32 0, i32 22
  %86 = load ptr, ptr %85, align 8, !tbaa !99
  %87 = icmp ne ptr %86, null
  %88 = xor i1 %87, true
  %89 = xor i1 %88, true
  %90 = zext i1 %89 to i32
  %91 = sext i32 %90 to i64
  %92 = call i64 @llvm.expect.i64(i64 %91, i64 0)
  %93 = icmp ne i64 %92, 0
  br i1 %93, label %94, label %113

94:                                               ; preds = %79
  %95 = load ptr, ptr %5, align 8, !tbaa !12
  %96 = getelementptr inbounds nuw %struct._zval_struct, ptr %95, i32 0, i32 0
  %97 = load ptr, ptr %96, align 8, !tbaa !11
  %98 = getelementptr inbounds nuw %struct._zend_object, ptr %97, i32 0, i32 4
  %99 = load ptr, ptr %98, align 8, !tbaa !22
  %100 = getelementptr inbounds nuw %struct._zend_object_handlers, ptr %99, i32 0, i32 22
  %101 = load ptr, ptr %100, align 8, !tbaa !99
  %102 = load ptr, ptr %4, align 8, !tbaa !12
  %103 = load ptr, ptr %5, align 8, !tbaa !12
  %104 = call i32 %101(i8 noundef zeroext 14, ptr noundef %102, ptr noundef %103, ptr noundef null)
  %105 = icmp eq i32 0, %104
  %106 = xor i1 %105, true
  %107 = xor i1 %106, true
  %108 = zext i1 %107 to i32
  %109 = sext i32 %108 to i64
  %110 = call i64 @llvm.expect.i64(i64 %109, i64 1)
  %111 = icmp ne i64 %110, 0
  br i1 %111, label %112, label %113

112:                                              ; preds = %94
  store i32 0, ptr %3, align 4
  br label %124

113:                                              ; preds = %94, %79, %68
  br label %114

114:                                              ; preds = %113
  %115 = load ptr, ptr %5, align 8, !tbaa !12
  %116 = call zeroext i1 @zend_is_true(ptr noundef %115)
  %117 = xor i1 %116, true
  %118 = select i1 %117, i32 3, i32 2
  %119 = load ptr, ptr %4, align 8, !tbaa !12
  %120 = getelementptr inbounds nuw %struct._zval_struct, ptr %119, i32 0, i32 1
  store i32 %118, ptr %120, align 8, !tbaa !11
  br label %121

121:                                              ; preds = %114
  br label %122

122:                                              ; preds = %121, %30
  br label %123

123:                                              ; preds = %122, %14
  store i32 0, ptr %3, align 4
  br label %124

124:                                              ; preds = %123, %112, %65, %49
  %125 = load i32, ptr %3, align 4
  ret i32 %125
}