; Function Attrs: nounwind uwtable
define dso_local noundef i32 @boolean_not_function(ptr noundef %0, ptr noundef %1) local_unnamed_addr #1 {
  %3 = getelementptr inbounds nuw i8, ptr %1, i64 8
  %4 = load i8, ptr %3, align 8, !tbaa !4
  %5 = icmp ult i8 %4, 3
  br i1 %5, label %.sink.split, label %6

6:                                                ; preds = %2
  switch i8 %4, label %15 [
    i8 3, label %.sink.split
    i8 10, label %7
  ], !prof !114

7:                                                ; preds = %6
  %8 = load ptr, ptr %1, align 8, !tbaa !4
  %9 = getelementptr inbounds nuw i8, ptr %8, i64 16
  %10 = load i8, ptr %9, align 8, !tbaa !4
  %11 = icmp ult i8 %10, 3
  br i1 %11, label %.sink.split, label %12

12:                                               ; preds = %7
  %13 = icmp eq i8 %10, 3
  br i1 %13, label %.sink.split, label %._crit_edge, !prof !38

._crit_edge:                                      ; preds = %12
  %14 = getelementptr inbounds nuw i8, ptr %8, i64 8
  br label %15

15:                                               ; preds = %._crit_edge, %6
  %16 = phi i8 [ %10, %._crit_edge ], [ %4, %6 ]
  %.0 = phi ptr [ %14, %._crit_edge ], [ %1, %6 ]
  %17 = icmp eq i8 %16, 8
  br i1 %17, label %18, label %27, !prof !41

18:                                               ; preds = %15
  %19 = load ptr, ptr %.0, align 8, !tbaa !4
  %20 = getelementptr inbounds nuw i8, ptr %19, i64 24
  %21 = load ptr, ptr %20, align 8, !tbaa !16
  %22 = getelementptr inbounds nuw i8, ptr %21, i64 176
  %23 = load ptr, ptr %22, align 8, !tbaa !89
  %.not = icmp eq ptr %23, null
  br i1 %.not, label %27, label %24, !prof !38

24:                                               ; preds = %18
  %25 = tail call i32 %23(i8 noundef zeroext 14, ptr noundef %0, ptr noundef nonnull %.0, ptr noundef null) #28
  %26 = icmp eq i32 %25, 0
  br i1 %26, label %31, label %27, !prof !38

27:                                               ; preds = %15, %18, %24
  %28 = tail call zeroext i1 @zend_is_true(ptr noundef nonnull %.0)
  %29 = select i1 %28, i32 2, i32 3
  br label %.sink.split

.sink.split:                                      ; preds = %12, %7, %6, %2, %27
  %.sink = phi i32 [ %29, %27 ], [ 3, %2 ], [ 2, %6 ], [ 3, %7 ], [ 2, %12 ]
  %30 = getelementptr inbounds nuw i8, ptr %0, i64 8
  store i32 %.sink, ptr %30, align 8, !tbaa !4
  br label %31

31:                                               ; preds = %.sink.split, %24
  ret i32 0
}